target datalayout = "e-m:e-p270:32:32-p271:32:32-p272:64:64-i64:64-i128:128-f80:128-n8:16:32:64-S128"
target triple = "x86_64-pc-linux-gnu"

%struct.hwloc_numanode_attr_s = type { i64, i32, ptr }
%struct.stat = type { i64, i64, i64, i32, i32, i32, i32, i64, i64, i64, i64, %struct.timespec, %struct.timespec, %struct.timespec, [3 x i64] }
%struct.timespec = type { i64, i64 }
%struct.hwloc_linux_backend_data_s = type { ptr, i32, i32, ptr, ptr, i32, i32, i32, i32, i32, i32, i32, %struct.utsname, i32, i32, i32 }
%struct.utsname = type { [65 x i8], [65 x i8], [65 x i8], [65 x i8], [65 x i8], [65 x i8] }
%struct.hwloc_memory_page_type_s = type { i64, i64 }

@.str.274 = private unnamed_addr constant [11 x i8] c"MemTotal: \00", align 1
@.str.281 = private unnamed_addr constant [42 x i8] c"/sys/devices/system/node/node%d/hugepages\00", align 1
@.str.282 = private unnamed_addr constant [40 x i8] c"/sys/devices/system/node/node%d/meminfo\00", align 1

; Function Attrs: nounwind uwtable
define internal i32 @hwloc_openat(ptr noundef %0, i32 noundef %1) #0 {
  %3 = alloca i32, align 4
  %4 = alloca ptr, align 8
  %5 = alloca i32, align 4
  %6 = alloca ptr, align 8
  %7 = alloca i32, align 4
  store ptr %0, ptr %4, align 8, !tbaa !3
  store i32 %1, ptr %5, align 4, !tbaa !10
  call void @llvm.lifetime.start.p0(i64 8, ptr %6) #14
  %8 = load ptr, ptr %4, align 8, !tbaa !3
  %9 = load i32, ptr %5, align 4, !tbaa !10
  %10 = call ptr @hwloc_checkat(ptr noundef %8, i32 noundef %9)
  store ptr %10, ptr %6, align 8, !tbaa !3
  %11 = load ptr, ptr %6, align 8, !tbaa !3
  %12 = icmp ne ptr %11, null
  br i1 %12, label %14, label %13

13:                                               ; preds = %2
  store i32 -1, ptr %3, align 4
  store i32 1, ptr %7, align 4
  br label %18

14:                                               ; preds = %2
  %15 = load i32, ptr %5, align 4, !tbaa !10
  %16 = load ptr, ptr %6, align 8, !tbaa !3
  %17 = call i32 (i32, ptr, i32, ...) @openat(i32 noundef %15, ptr noundef %16, i32 noundef 0)
  store i32 %17, ptr %3, align 4
  store i32 1, ptr %7, align 4
  br label %18

18:                                               ; preds = %14, %13
  call void @llvm.lifetime.end.p0(i64 8, ptr %6) #14
  %19 = load i32, ptr %3, align 4
  ret i32 %19
}

; Function Attrs: inlinehint nounwind uwtable
define internal i32 @hwloc_open(ptr noundef %0, i32 noundef %1) #1 {
  %3 = alloca ptr, align 8
  %4 = alloca i32, align 4
  store ptr %0, ptr %3, align 8, !tbaa !3
  store i32 %1, ptr %4, align 4, !tbaa !10
  %5 = load ptr, ptr %3, align 8, !tbaa !3
  %6 = load i32, ptr %4, align 4, !tbaa !10
  %7 = call i32 @hwloc_openat(ptr noundef %5, i32 noundef %6)
  ret i32 %7
}

; Function Attrs: nounwind uwtable
define internal ptr @hwloc_checkat(ptr noundef %0, i32 noundef %1) #0 {
  %3 = alloca ptr, align 8
  %4 = alloca i32, align 4
  %5 = alloca ptr, align 8
  store ptr %0, ptr %3, align 8, !tbaa !3
  store i32 %1, ptr %4, align 4, !tbaa !10
  call void @llvm.lifetime.start.p0(i64 8, ptr %5) #14
  %6 = load ptr, ptr %3, align 8, !tbaa !3
  store ptr %6, ptr %5, align 8, !tbaa !3
  %7 = load i32, ptr %4, align 4, !tbaa !10
  %8 = icmp sge i32 %7, 0
  br i1 %8, label %9, label %20

9:                                                ; preds = %2
  br label %10

10:                                               ; preds = %16, %9
  %11 = load ptr, ptr %5, align 8, !tbaa !3
  %12 = load i8, ptr %11, align 1, !tbaa !54
  %13 = sext i8 %12 to i32
  %14 = icmp eq i32 %13, 47
  br i1 %14, label %15, label %19

15:                                               ; preds = %10
  br label %16

16:                                               ; preds = %15
  %17 = load ptr, ptr %5, align 8, !tbaa !3
  %18 = getelementptr inbounds nuw i8, ptr %17, i32 1
  store ptr %18, ptr %5, align 8, !tbaa !3
  br label %10, !llvm.loop !97

19:                                               ; preds = %10
  br label %20

20:                                               ; preds = %19, %2
  %21 = load ptr, ptr %5, align 8, !tbaa !3
  call void @llvm.lifetime.end.p0(i64 8, ptr %5) #14
  ret ptr %21
}

; Function Attrs: inlinehint nounwind uwtable
define internal i64 @hwloc_read_path_by_length(ptr noundef %0, ptr noundef %1, i64 noundef %2, i32 noundef %3) #1 {
  %5 = alloca i64, align 8
  %6 = alloca ptr, align 8
  %7 = alloca ptr, align 8
  %8 = alloca i64, align 8
  %9 = alloca i32, align 4
  %10 = alloca i32, align 4
  %11 = alloca i64, align 8
  %12 = alloca i32, align 4
  store ptr %0, ptr %6, align 8, !tbaa !3
  store ptr %1, ptr %7, align 8, !tbaa !3
  store i64 %2, ptr %8, align 8, !tbaa !12
  store i32 %3, ptr %9, align 4, !tbaa !10
  call void @llvm.lifetime.start.p0(i64 4, ptr %10) #14
  call void @llvm.lifetime.start.p0(i64 8, ptr %11) #14
  %13 = load ptr, ptr %6, align 8, !tbaa !3
  %14 = load i32, ptr %9, align 4, !tbaa !10
  %15 = call i32 @hwloc_open(ptr noundef %13, i32 noundef %14)
  store i32 %15, ptr %10, align 4, !tbaa !10
  %16 = load i32, ptr %10, align 4, !tbaa !10
  %17 = icmp slt i32 %16, 0
  br i1 %17, label %18, label %19

18:                                               ; preds = %4
  store i64 -1, ptr %5, align 8
  store i32 1, ptr %12, align 4
  br label %35

19:                                               ; preds = %4
  %20 = load i32, ptr %10, align 4, !tbaa !10
  %21 = load ptr, ptr %7, align 8, !tbaa !3
  %22 = load i64, ptr %8, align 8, !tbaa !12
  %23 = sub i64 %22, 1
  %24 = call i64 @read(i32 noundef %20, ptr noundef %21, i64 noundef %23)
  store i64 %24, ptr %11, align 8, !tbaa !12
  %25 = load i32, ptr %10, align 4, !tbaa !10
  %26 = call i32 @close(i32 noundef %25)
  %27 = load i64, ptr %11, align 8, !tbaa !12
  %28 = icmp sle i64 %27, 0
  br i1 %28, label %29, label %30

29:                                               ; preds = %19
  store i64 -1, ptr %5, align 8
  store i32 1, ptr %12, align 4
  br label %35

30:                                               ; preds = %19
  %31 = load ptr, ptr %7, align 8, !tbaa !3
  %32 = load i64, ptr %11, align 8, !tbaa !12
  %33 = getelementptr inbounds i8, ptr %31, i64 %32
  store i8 0, ptr %33, align 1, !tbaa !54
  %34 = load i64, ptr %11, align 8, !tbaa !12
  store i64 %34, ptr %5, align 8
  store i32 1, ptr %12, align 4
  br label %35

35:                                               ; preds = %30, %29, %18
  call void @llvm.lifetime.end.p0(i64 8, ptr %11) #14
  call void @llvm.lifetime.end.p0(i64 4, ptr %10) #14
  %36 = load i64, ptr %5, align 8
  ret i64 %36
}

; Function Attrs: nounwind uwtable
define internal i32 @hwloc_fstatat(ptr noundef %0, ptr noundef %1, i32 noundef %2, i32 noundef %3) #0 {
  %5 = alloca i32, align 4
  %6 = alloca ptr, align 8
  %7 = alloca ptr, align 8
  %8 = alloca i32, align 4
  %9 = alloca i32, align 4
  %10 = alloca ptr, align 8
  %11 = alloca i32, align 4
  store ptr %0, ptr %6, align 8, !tbaa !3
  store ptr %1, ptr %7, align 8, !tbaa !307
  store i32 %2, ptr %8, align 4, !tbaa !10
  store i32 %3, ptr %9, align 4, !tbaa !10
  call void @llvm.lifetime.start.p0(i64 8, ptr %10) #14
  %12 = load ptr, ptr %6, align 8, !tbaa !3
  %13 = load i32, ptr %9, align 4, !tbaa !10
  %14 = call ptr @hwloc_checkat(ptr noundef %12, i32 noundef %13)
  store ptr %14, ptr %10, align 8, !tbaa !3
  %15 = load ptr, ptr %10, align 8, !tbaa !3
  %16 = icmp ne ptr %15, null
  br i1 %16, label %18, label %17

17:                                               ; preds = %4
  store i32 -1, ptr %5, align 4
  store i32 1, ptr %11, align 4
  br label %24

18:                                               ; preds = %4
  %19 = load i32, ptr %9, align 4, !tbaa !10
  %20 = load ptr, ptr %10, align 8, !tbaa !3
  %21 = load ptr, ptr %7, align 8, !tbaa !307
  %22 = load i32, ptr %8, align 4, !tbaa !10
  %23 = call i32 @fstatat(i32 noundef %19, ptr noundef %20, ptr noundef %21, i32 noundef %22) #14
  store i32 %23, ptr %5, align 4
  store i32 1, ptr %11, align 4
  br label %24

24:                                               ; preds = %18, %17
  call void @llvm.lifetime.end.p0(i64 8, ptr %10) #14
  %25 = load i32, ptr %5, align 4
  ret i32 %25
}

; Function Attrs: nounwind uwtable
define internal void @hwloc_parse_meminfo_info(ptr noundef %0, ptr noundef %1, ptr noundef %2) #0 {
  %4 = alloca ptr, align 8
  %5 = alloca ptr, align 8
  %6 = alloca ptr, align 8
  %7 = alloca ptr, align 8
  %8 = alloca [4096 x i8], align 16
  %9 = alloca i64, align 8
  %10 = alloca i32, align 4
  store ptr %0, ptr %4, align 8, !tbaa !140
  store ptr %1, ptr %5, align 8, !tbaa !3
  store ptr %2, ptr %6, align 8, !tbaa !14
  call void @llvm.lifetime.start.p0(i64 8, ptr %7) #14
  call void @llvm.lifetime.start.p0(i64 4096, ptr %8) #14
  call void @llvm.lifetime.start.p0(i64 8, ptr %9) #14
  %11 = load ptr, ptr %5, align 8, !tbaa !3
  %12 = getelementptr inbounds [4096 x i8], ptr %8, i64 0, i64 0
  %13 = load ptr, ptr %4, align 8, !tbaa !140
  %14 = getelementptr inbounds nuw %struct.hwloc_linux_backend_data_s, ptr %13, i32 0, i32 1
  %15 = load i32, ptr %14, align 8, !tbaa !157
  %16 = call i64 @hwloc_read_path_by_length(ptr noundef %11, ptr noundef %12, i64 noundef 4096, i32 noundef %15)
  %17 = icmp sle i64 %16, 0
  br i1 %17, label %18, label %19

18:                                               ; preds = %3
  store i32 1, ptr %10, align 4
  br label %32

19:                                               ; preds = %3
  %20 = getelementptr inbounds [4096 x i8], ptr %8, i64 0, i64 0
  %21 = call ptr @strstr(ptr noundef %20, ptr noundef @.str.274) #17
  store ptr %21, ptr %7, align 8, !tbaa !3
  %22 = load ptr, ptr %7, align 8, !tbaa !3
  %23 = icmp ne ptr %22, null
  br i1 %23, label %24, label %31

24:                                               ; preds = %19
  %25 = load ptr, ptr %7, align 8, !tbaa !3
  %26 = getelementptr inbounds i8, ptr %25, i64 10
  %27 = call i64 @strtoull(ptr noundef %26, ptr noundef null, i32 noundef 10) #14
  store i64 %27, ptr %9, align 8, !tbaa !309
  %28 = load i64, ptr %9, align 8, !tbaa !309
  %29 = shl i64 %28, 10
  %30 = load ptr, ptr %6, align 8, !tbaa !14
  store i64 %29, ptr %30, align 8, !tbaa !12
  br label %31

31:                                               ; preds = %24, %19
  store i32 0, ptr %10, align 4
  br label %32

32:                                               ; preds = %31, %18
  call void @llvm.lifetime.end.p0(i64 8, ptr %9) #14
  call void @llvm.lifetime.end.p0(i64 4096, ptr %8) #14
  call void @llvm.lifetime.end.p0(i64 8, ptr %7) #14
  %33 = load i32, ptr %10, align 4
  switch i32 %33, label %35 [
    i32 0, label %34
    i32 1, label %34
  ]

34:                                               ; preds = %32, %32
  ret void

35:                                               ; preds = %32
  unreachable
}

; Function Attrs: inlinehint nounwind uwtable
define internal i32 @hwloc_stat(ptr noundef %0, ptr noundef %1, i32 noundef %2) #1 {
  %4 = alloca ptr, align 8
  %5 = alloca ptr, align 8
  %6 = alloca i32, align 4
  store ptr %0, ptr %4, align 8, !tbaa !3
  store ptr %1, ptr %5, align 8, !tbaa !307
  store i32 %2, ptr %6, align 4, !tbaa !10
  %7 = load ptr, ptr %4, align 8, !tbaa !3
  %8 = load ptr, ptr %5, align 8, !tbaa !307
  %9 = load i32, ptr %6, align 4, !tbaa !10
  %10 = call i32 @hwloc_fstatat(ptr noundef %7, ptr noundef %8, i32 noundef 0, i32 noundef %9)
  ret i32 %10
}

; Function Attrs: nounwind uwtable
define internal void @hwloc_get_sysfs_node_meminfo(ptr noundef %0, i32 noundef %1, ptr noundef %2) #0 {
  %4 = alloca ptr, align 8
  %5 = alloca i32, align 4
  %6 = alloca ptr, align 8
  %7 = alloca [128 x i8], align 16
  %8 = alloca [128 x i8], align 16
  %9 = alloca %struct.stat, align 8
  %10 = alloca i32, align 4
  %11 = alloca i32, align 4
  %12 = alloca i64, align 8
  %13 = alloca i32, align 4
  %14 = alloca i32, align 4
  store ptr %0, ptr %4, align 8, !tbaa !140
  store i32 %1, ptr %5, align 4, !tbaa !10
  store ptr %2, ptr %6, align 8, !tbaa !259
  call void @llvm.lifetime.start.p0(i64 128, ptr %7) #14
  call void @llvm.lifetime.start.p0(i64 128, ptr %8) #14
  call void @llvm.lifetime.start.p0(i64 144, ptr %9) #14
  call void @llvm.lifetime.start.p0(i64 4, ptr %10) #14
  store i32 0, ptr %10, align 4, !tbaa !10
  call void @llvm.lifetime.start.p0(i64 4, ptr %11) #14
  store i32 1, ptr %11, align 4, !tbaa !10
  call void @llvm.lifetime.start.p0(i64 8, ptr %12) #14
  call void @llvm.lifetime.start.p0(i64 4, ptr %13) #14
  %15 = getelementptr inbounds [128 x i8], ptr %7, i64 0, i64 0
  %16 = load i32, ptr %5, align 4, !tbaa !10
  %17 = call i32 (ptr, ptr, ...) @sprintf(ptr noundef %15, ptr noundef @.str.281, i32 noundef %16) #14
  %18 = getelementptr inbounds [128 x i8], ptr %7, i64 0, i64 0
  %19 = load ptr, ptr %4, align 8, !tbaa !140
  %20 = getelementptr inbounds nuw %struct.hwloc_linux_backend_data_s, ptr %19, i32 0, i32 1
  %21 = load i32, ptr %20, align 8, !tbaa !157
  %22 = call i32 @hwloc_stat(ptr noundef %18, ptr noundef %9, i32 noundef %21)
  store i32 %22, ptr %13, align 4, !tbaa !10
  %23 = load i32, ptr %13, align 4, !tbaa !10
  %24 = icmp ne i32 %23, 0
  br i1 %24, label %35, label %25

25:                                               ; preds = %3
  %26 = getelementptr inbounds nuw %struct.stat, ptr %9, i32 0, i32 2
  %27 = load i64, ptr %26, align 8, !tbaa !103
  %28 = add i64 1, %27
  %29 = sub i64 %28, 2
  %30 = trunc i64 %29 to i32
  store i32 %30, ptr %11, align 4, !tbaa !10
  %31 = load i32, ptr %11, align 4, !tbaa !10
  %32 = icmp slt i32 %31, 3
  br i1 %32, label %33, label %34

33:                                               ; preds = %25
  store i32 3, ptr %11, align 4, !tbaa !10
  br label %34

34:                                               ; preds = %33, %25
  store i32 1, ptr %10, align 4, !tbaa !10
  br label %35

35:                                               ; preds = %34, %3
  %36 = load i32, ptr %11, align 4, !tbaa !10
  %37 = sext i32 %36 to i64
  %38 = call noalias ptr @calloc(i64 noundef %37, i64 noundef 16) #19
  %39 = load ptr, ptr %6, align 8, !tbaa !259
  %40 = getelementptr inbounds nuw %struct.hwloc_numanode_attr_s, ptr %39, i32 0, i32 2
  store ptr %38, ptr %40, align 8, !tbaa !261
  %41 = load ptr, ptr %6, align 8, !tbaa !259
  %42 = getelementptr inbounds nuw %struct.hwloc_numanode_attr_s, ptr %41, i32 0, i32 2
  %43 = load ptr, ptr %42, align 8, !tbaa !261
  %44 = icmp ne ptr %43, null
  br i1 %44, label %48, label %45

45:                                               ; preds = %35
  %46 = load ptr, ptr %6, align 8, !tbaa !259
  %47 = getelementptr inbounds nuw %struct.hwloc_numanode_attr_s, ptr %46, i32 0, i32 1
  store i32 0, ptr %47, align 8, !tbaa !262
  store i32 1, ptr %14, align 4
  br label %91

48:                                               ; preds = %35
  %49 = load ptr, ptr %6, align 8, !tbaa !259
  %50 = getelementptr inbounds nuw %struct.hwloc_numanode_attr_s, ptr %49, i32 0, i32 1
  store i32 1, ptr %50, align 8, !tbaa !262
  %51 = getelementptr inbounds [128 x i8], ptr %8, i64 0, i64 0
  %52 = load i32, ptr %5, align 4, !tbaa !10
  %53 = call i32 (ptr, ptr, ...) @sprintf(ptr noundef %51, ptr noundef @.str.282, i32 noundef %52) #14
  %54 = load ptr, ptr %4, align 8, !tbaa !140
  %55 = getelementptr inbounds [128 x i8], ptr %8, i64 0, i64 0
  %56 = load ptr, ptr %6, align 8, !tbaa !259
  %57 = getelementptr inbounds nuw %struct.hwloc_numanode_attr_s, ptr %56, i32 0, i32 0
  call void @hwloc_parse_meminfo_info(ptr noundef %54, ptr noundef %55, ptr noundef %57)
  %58 = load ptr, ptr %6, align 8, !tbaa !259
  %59 = getelementptr inbounds nuw %struct.hwloc_numanode_attr_s, ptr %58, i32 0, i32 0
  %60 = load i64, ptr %59, align 8, !tbaa !263
  store i64 %60, ptr %12, align 8, !tbaa !12
  %61 = load i32, ptr %10, align 4, !tbaa !10
  %62 = icmp ne i32 %61, 0
  br i1 %62, label %63, label %68

63:                                               ; preds = %48
  %64 = load ptr, ptr %4, align 8, !tbaa !140
  %65 = getelementptr inbounds [128 x i8], ptr %7, i64 0, i64 0
  %66 = load ptr, ptr %6, align 8, !tbaa !259
  %67 = load i32, ptr %11, align 4, !tbaa !10
  call void @hwloc_parse_hugepages_info(ptr noundef %64, ptr noundef %65, ptr noundef %66, i32 noundef %67, ptr noundef %12)
  br label %68

68:                                               ; preds = %63, %48
  %69 = load ptr, ptr %4, align 8, !tbaa !140
  %70 = getelementptr inbounds nuw %struct.hwloc_linux_backend_data_s, ptr %69, i32 0, i32 14
  %71 = load i32, ptr %70, align 8, !tbaa !179
  %72 = zext i32 %71 to i64
  %73 = load ptr, ptr %6, align 8, !tbaa !259
  %74 = getelementptr inbounds nuw %struct.hwloc_numanode_attr_s, ptr %73, i32 0, i32 2
  %75 = load ptr, ptr %74, align 8, !tbaa !261
  %76 = getelementptr inbounds %struct.hwloc_memory_page_type_s, ptr %75, i64 0
  %77 = getelementptr inbounds nuw %struct.hwloc_memory_page_type_s, ptr %76, i32 0, i32 0
  store i64 %72, ptr %77, align 8, !tbaa !264
  %78 = load i64, ptr %12, align 8, !tbaa !12
  %79 = load ptr, ptr %6, align 8, !tbaa !259
  %80 = getelementptr inbounds nuw %struct.hwloc_numanode_attr_s, ptr %79, i32 0, i32 2
  %81 = load ptr, ptr %80, align 8, !tbaa !261
  %82 = getelementptr inbounds %struct.hwloc_memory_page_type_s, ptr %81, i64 0
  %83 = getelementptr inbounds nuw %struct.hwloc_memory_page_type_s, ptr %82, i32 0, i32 0
  %84 = load i64, ptr %83, align 8, !tbaa !264
  %85 = udiv i64 %78, %84
  %86 = load ptr, ptr %6, align 8, !tbaa !259
  %87 = getelementptr inbounds nuw %struct.hwloc_numanode_attr_s, ptr %86, i32 0, i32 2
  %88 = load ptr, ptr %87, align 8, !tbaa !261
  %89 = getelementptr inbounds %struct.hwloc_memory_page_type_s, ptr %88, i64 0
  %90 = getelementptr inbounds nuw %struct.hwloc_memory_page_type_s, ptr %89, i32 0, i32 1
  store i64 %85, ptr %90, align 8, !tbaa !266
  store i32 0, ptr %14, align 4
  br label %91

91:                                               ; preds = %68, %45
  call void @llvm.lifetime.end.p0(i64 4, ptr %13) #14
  call void @llvm.lifetime.end.p0(i64 8, ptr %12) #14
  call void @llvm.lifetime.end.p0(i64 4, ptr %11) #14
  call void @llvm.lifetime.end.p0(i64 4, ptr %10) #14
  call void @llvm.lifetime.end.p0(i64 144, ptr %9) #14
  call void @llvm.lifetime.end.p0(i64 128, ptr %8) #14
  call void @llvm.lifetime.end.p0(i64 128, ptr %7) #14
  %92 = load i32, ptr %14, align 4
  switch i32 %92, label %94 [
    i32 0, label %93
    i32 1, label %93
  ]

93:                                               ; preds = %91, %91
  ret void

94:                                               ; preds = %91
  unreachable
}