; Function Attrs: nounwind uwtable
define internal fastcc void @hwloc_get_sysfs_node_meminfo(ptr noundef readonly captures(none) %0, i32 noundef %1, ptr noundef captures(none) %2) unnamed_addr #0 {
  %4 = alloca [4096 x i8], align 16
  %5 = alloca [128 x i8], align 16
  %6 = alloca [128 x i8], align 16
  %7 = alloca %struct.stat, align 8
  %8 = alloca i64, align 8
  call void @llvm.lifetime.start.p0(i64 128, ptr nonnull %5) #27
  call void @llvm.lifetime.start.p0(i64 128, ptr nonnull %6) #27
  call void @llvm.lifetime.start.p0(i64 144, ptr nonnull %7) #27
  call void @llvm.lifetime.start.p0(i64 8, ptr nonnull %8) #27
  %9 = call i32 (ptr, ptr, ...) @sprintf(ptr noundef nonnull dereferenceable(1) %5, ptr noundef nonnull dereferenceable(1) @.str.281, i32 noundef %1) #27
  %10 = getelementptr inbounds nuw i8, ptr %0, i64 8
  %11 = load i32, ptr %10, align 8, !tbaa !127
  %12 = icmp sgt i32 %11, -1
  br i1 %12, label %.preheader.i.i.i, label %hwloc_stat.exit

.preheader.i.i.i:                                 ; preds = %3, %.preheader.i.i.i
  %.1.i.i.i = phi ptr [ %15, %.preheader.i.i.i ], [ %5, %3 ]
  %13 = load i8, ptr %.1.i.i.i, align 1, !tbaa !7
  %14 = icmp eq i8 %13, 47
  %15 = getelementptr inbounds nuw i8, ptr %.1.i.i.i, i64 1
  br i1 %14, label %.preheader.i.i.i, label %hwloc_stat.exit, !llvm.loop !8

hwloc_stat.exit:                                  ; preds = %.preheader.i.i.i, %3
  %.0.i10.i.i = phi ptr [ %5, %3 ], [ %.1.i.i.i, %.preheader.i.i.i ]
  %16 = call i32 @fstatat(i32 noundef %11, ptr noundef nonnull %.0.i10.i.i, ptr noundef nonnull %7, i32 noundef 0) #27
  %.not.not = icmp eq i32 %16, 0
  br i1 %.not.not, label %17, label %22

17:                                               ; preds = %hwloc_stat.exit
  %18 = getelementptr inbounds nuw i8, ptr %7, i64 16
  %19 = load i64, ptr %18, align 8, !tbaa !232
  %20 = trunc i64 %19 to i32
  %21 = add i32 %20, -1
  %spec.store.select = call i32 @llvm.smax.i32(i32 %21, i32 3)
  br label %22

22:                                               ; preds = %17, %hwloc_stat.exit
  %.020 = phi i32 [ 1, %hwloc_stat.exit ], [ %spec.store.select, %17 ]
  %23 = zext nneg i32 %.020 to i64
  %24 = call noalias ptr @calloc(i64 noundef %23, i64 noundef 16) #32
  %25 = getelementptr inbounds nuw i8, ptr %2, i64 16
  store ptr %24, ptr %25, align 8, !tbaa !235
  %.not21 = icmp eq ptr %24, null
  %26 = getelementptr inbounds nuw i8, ptr %2, i64 8
  br i1 %.not21, label %27, label %28

27:                                               ; preds = %22
  store i32 0, ptr %26, align 8, !tbaa !236
  br label %57

28:                                               ; preds = %22
  store i32 1, ptr %26, align 8, !tbaa !236
  %29 = call i32 (ptr, ptr, ...) @sprintf(ptr noundef nonnull dereferenceable(1) %6, ptr noundef nonnull dereferenceable(1) @.str.282, i32 noundef %1) #27
  %.val = load i32, ptr %10, align 8, !tbaa !127
  call void @llvm.lifetime.start.p0(i64 4096, ptr nonnull %4) #27
  %30 = icmp sgt i32 %.val, -1
  br i1 %30, label %.preheader.i.i.i.i.i, label %hwloc_open.exit.i.i

.preheader.i.i.i.i.i:                             ; preds = %28, %.preheader.i.i.i.i.i
  %.1.i.i.i.i.i = phi ptr [ %33, %.preheader.i.i.i.i.i ], [ %6, %28 ]
  %31 = load i8, ptr %.1.i.i.i.i.i, align 1, !tbaa !7
  %32 = icmp eq i8 %31, 47
  %33 = getelementptr inbounds nuw i8, ptr %.1.i.i.i.i.i, i64 1
  br i1 %32, label %.preheader.i.i.i.i.i, label %hwloc_open.exit.i.i, !llvm.loop !8

hwloc_open.exit.i.i:                              ; preds = %.preheader.i.i.i.i.i, %28
  %.0.i8.i.i.i.i = phi ptr [ %6, %28 ], [ %.1.i.i.i.i.i, %.preheader.i.i.i.i.i ]
  %34 = call i32 (i32, ptr, i32, ...) @openat(i32 noundef %.val, ptr noundef nonnull %.0.i8.i.i.i.i, i32 noundef 0) #27
  %35 = icmp slt i32 %34, 0
  br i1 %35, label %hwloc_parse_meminfo_info.exit, label %36

36:                                               ; preds = %hwloc_open.exit.i.i
  %37 = call i64 @read(i32 noundef %34, ptr noundef nonnull %4, i64 noundef 4095) #27
  %38 = call i32 @close(i32 noundef %34) #27
  %39 = icmp slt i64 %37, 1
  br i1 %39, label %hwloc_parse_meminfo_info.exit, label %40

40:                                               ; preds = %36
  %41 = getelementptr inbounds nuw i8, ptr %4, i64 %37
  store i8 0, ptr %41, align 1, !tbaa !7
  %42 = call ptr @strstr(ptr noundef nonnull dereferenceable(1) %4, ptr noundef nonnull dereferenceable(1) @.str.274) #30
  %.not.i = icmp eq ptr %42, null
  br i1 %.not.i, label %hwloc_parse_meminfo_info.exit, label %43

43:                                               ; preds = %40
  %44 = getelementptr inbounds nuw i8, ptr %42, i64 10
  %45 = call i64 @strtoull(ptr noundef nonnull captures(none) %44, ptr noundef null, i32 noundef 10) #27
  %46 = shl i64 %45, 10
  store i64 %46, ptr %2, align 8, !tbaa !10
  br label %hwloc_parse_meminfo_info.exit

hwloc_parse_meminfo_info.exit:                    ; preds = %hwloc_open.exit.i.i, %36, %40, %43
  call void @llvm.lifetime.end.p0(i64 4096, ptr nonnull %4) #27
  %47 = load i64, ptr %2, align 8, !tbaa !237
  store i64 %47, ptr %8, align 8, !tbaa !10
  br i1 %.not.not, label %48, label %49

48:                                               ; preds = %hwloc_parse_meminfo_info.exit
  call fastcc void @hwloc_parse_hugepages_info(ptr noundef %0, ptr noundef nonnull %5, ptr noundef nonnull %2, i32 noundef %.020, ptr noundef %8)
  %.pre = load i64, ptr %8, align 8, !tbaa !10
  br label %49

49:                                               ; preds = %48, %hwloc_parse_meminfo_info.exit
  %50 = phi i64 [ %.pre, %48 ], [ %47, %hwloc_parse_meminfo_info.exit ]
  %51 = getelementptr inbounds nuw i8, ptr %0, i64 456
  %52 = load i32, ptr %51, align 8, !tbaa !136
  %53 = zext i32 %52 to i64
  %54 = load ptr, ptr %25, align 8, !tbaa !235
  store i64 %53, ptr %54, align 8, !tbaa !238
  %55 = udiv i64 %50, %53
  %56 = getelementptr inbounds nuw i8, ptr %54, i64 8
  store i64 %55, ptr %56, align 8, !tbaa !240
  br label %57

57:                                               ; preds = %49, %27
  call void @llvm.lifetime.end.p0(i64 8, ptr nonnull %8) #27
  call void @llvm.lifetime.end.p0(i64 144, ptr nonnull %7) #27
  call void @llvm.lifetime.end.p0(i64 128, ptr nonnull %6) #27
  call void @llvm.lifetime.end.p0(i64 128, ptr nonnull %5) #27
  ret void
}